; Function Attrs: mustprogress nounwind uwtable
define dso_local void @_ZN4llvm10MCStreamerC2ERNS_9MCContextE(ptr noundef nonnull align 8 dereferenceable(288) %0, ptr noundef nonnull align 8 dereferenceable(2432) %1) unnamed_addr #0 align 2 {
  %3 = alloca %"struct.std::pair.149", align 8
  store ptr getelementptr inbounds inrange(-16, 1312) (i8, ptr @_ZTVN4llvm10MCStreamerE, i64 16), ptr %0, align 8
  %4 = getelementptr inbounds nuw i8, ptr %0, i64 8
  store ptr %1, ptr %4, align 8
  %5 = getelementptr inbounds nuw i8, ptr %0, i64 16
  %6 = getelementptr inbounds nuw i8, ptr %0, i64 48
  %7 = getelementptr inbounds i8, ptr %0, i64 64
  tail call void @llvm.memset.p0.i64(ptr noundef nonnull align 8 dereferenceable(32) %5, i8 0, i64 32, i1 false)
  tail call void @_ZN4llvm15SmallVectorBaseIjEC2EPvm(ptr noundef nonnull align 8 dereferenceable(16) %6, ptr noundef nonnull %7, i64 noundef 1) #23
  %8 = getelementptr inbounds nuw i8, ptr %0, i64 80
  %9 = getelementptr inbounds nuw i8, ptr %0, i64 120
  %10 = getelementptr inbounds i8, ptr %0, i64 136
  tail call void @llvm.memset.p0.i64(ptr noundef nonnull align 8 dereferenceable(40) %8, i8 0, i64 40, i1 false)
  tail call void @_ZN4llvm15SmallVectorBaseIjEC2EPvm(ptr noundef nonnull align 8 dereferenceable(16) %9, ptr noundef nonnull %10, i64 noundef 4) #23
  %11 = getelementptr inbounds nuw i8, ptr %0, i64 264
  store ptr null, ptr %11, align 8
  %12 = getelementptr inbounds nuw i8, ptr %0, i64 272
  store i32 0, ptr %12, align 8
  %13 = getelementptr inbounds nuw i8, ptr %0, i64 276
  store i8 1, ptr %13, align 4
  %14 = getelementptr inbounds nuw i8, ptr %0, i64 277
  store i8 0, ptr %14, align 1
  %15 = getelementptr inbounds nuw i8, ptr %0, i64 280
  store ptr null, ptr %15, align 8
  store ptr null, ptr %3, align 8
  %16 = getelementptr inbounds nuw i8, ptr %3, i64 8
  store i32 0, ptr %16, align 8
  %17 = getelementptr inbounds nuw i8, ptr %3, i64 16
  store ptr null, ptr %17, align 8
  %18 = getelementptr inbounds i8, ptr %3, i64 24
  store i32 0, ptr %18, align 8
  call void @_ZN4llvm23SmallVectorTemplateBaseISt4pairIS1_IPNS_9MCSectionEjES4_ELb1EE9push_backERKS5_(ptr noundef nonnull align 8 dereferenceable(16) %9, ptr noundef nonnull align 8 dereferenceable(32) %3)
  ret void
}